target datalayout = "e-m:e-p270:32:32-p271:32:32-p272:64:64-i64:64-i128:128-f80:128-n8:16:32:64-S128"
target triple = "x86_64-pc-linux-gnu"

%struct.redisContext = type { ptr, i32, [128 x i8], i32, i32, ptr, ptr, i32, ptr, ptr, %struct.anon, %struct.anon.0, ptr, i64, ptr, ptr, ptr, ptr }
%struct.anon = type { ptr, ptr, i32 }
%struct.anon.0 = type { ptr }
%struct.redisReader = type { i32, [128 x i8], ptr, i64, i64, i64, i64, ptr, i32, i32, ptr, ptr, ptr }

; Function Attrs: nounwind uwtable
define void @__redisSetError(ptr noundef %0, i32 noundef %1, ptr noundef %2) #0 {
  %4 = alloca ptr, align 8
  %5 = alloca i32, align 4
  %6 = alloca ptr, align 8
  %7 = alloca i64, align 8
  store ptr %0, ptr %4, align 8, !tbaa !40
  store i32 %1, ptr %5, align 4, !tbaa !29
  store ptr %2, ptr %6, align 8, !tbaa !26
  call void @llvm.lifetime.start.p0(i64 8, ptr %7) #10
  %8 = load i32, ptr %5, align 4, !tbaa !29
  %9 = load ptr, ptr %4, align 8, !tbaa !40
  %10 = getelementptr inbounds nuw %struct.redisContext, ptr %9, i32 0, i32 1
  store i32 %8, ptr %10, align 8, !tbaa !42
  %11 = load ptr, ptr %6, align 8, !tbaa !26
  %12 = icmp ne ptr %11, null
  br i1 %12, label %13, label %32

13:                                               ; preds = %3
  %14 = load ptr, ptr %6, align 8, !tbaa !26
  %15 = call i64 @strlen(ptr noundef %14) #11
  store i64 %15, ptr %7, align 8, !tbaa !19
  %16 = load i64, ptr %7, align 8, !tbaa !19
  %17 = icmp ult i64 %16, 127
  br i1 %17, label %18, label %20

18:                                               ; preds = %13
  %19 = load i64, ptr %7, align 8, !tbaa !19
  br label %21

20:                                               ; preds = %13
  br label %21

21:                                               ; preds = %20, %18
  %22 = phi i64 [ %19, %18 ], [ 127, %20 ]
  store i64 %22, ptr %7, align 8, !tbaa !19
  %23 = load ptr, ptr %4, align 8, !tbaa !40
  %24 = getelementptr inbounds nuw %struct.redisContext, ptr %23, i32 0, i32 2
  %25 = getelementptr inbounds [128 x i8], ptr %24, i64 0, i64 0
  %26 = load ptr, ptr %6, align 8, !tbaa !26
  %27 = load i64, ptr %7, align 8, !tbaa !19
  call void @llvm.memcpy.p0.p0.i64(ptr align 4 %25, ptr align 1 %26, i64 %27, i1 false)
  %28 = load ptr, ptr %4, align 8, !tbaa !40
  %29 = getelementptr inbounds nuw %struct.redisContext, ptr %28, i32 0, i32 2
  %30 = load i64, ptr %7, align 8, !tbaa !19
  %31 = getelementptr inbounds nuw [128 x i8], ptr %29, i64 0, i64 %30
  store i8 0, ptr %31, align 1, !tbaa !30
  br label %39

32:                                               ; preds = %3
  %33 = call ptr @__errno_location() #12
  %34 = load i32, ptr %33, align 4, !tbaa !29
  %35 = load ptr, ptr %4, align 8, !tbaa !40
  %36 = getelementptr inbounds nuw %struct.redisContext, ptr %35, i32 0, i32 2
  %37 = getelementptr inbounds [128 x i8], ptr %36, i64 0, i64 0
  %38 = call i32 @__xpg_strerror_r(i32 noundef %34, ptr noundef %37, i64 noundef 128) #10
  br label %39

39:                                               ; preds = %32, %21
  call void @llvm.lifetime.end.p0(i64 8, ptr %7) #10
  ret void
}

; Function Attrs: nounwind uwtable
define i32 @redisGetReplyFromReader(ptr noundef %0, ptr noundef %1) #0 {
  %3 = alloca i32, align 4
  %4 = alloca ptr, align 8
  %5 = alloca ptr, align 8
  store ptr %0, ptr %4, align 8, !tbaa !40
  store ptr %1, ptr %5, align 8, !tbaa !4
  %6 = load ptr, ptr %4, align 8, !tbaa !40
  %7 = getelementptr inbounds nuw %struct.redisContext, ptr %6, i32 0, i32 6
  %8 = load ptr, ptr %7, align 8, !tbaa !54
  %9 = load ptr, ptr %5, align 8, !tbaa !4
  %10 = call i32 @redisReaderGetReply(ptr noundef %8, ptr noundef %9)
  %11 = icmp eq i32 %10, -1
  br i1 %11, label %12, label %24

12:                                               ; preds = %2
  %13 = load ptr, ptr %4, align 8, !tbaa !40
  %14 = load ptr, ptr %4, align 8, !tbaa !40
  %15 = getelementptr inbounds nuw %struct.redisContext, ptr %14, i32 0, i32 6
  %16 = load ptr, ptr %15, align 8, !tbaa !54
  %17 = getelementptr inbounds nuw %struct.redisReader, ptr %16, i32 0, i32 0
  %18 = load i32, ptr %17, align 8, !tbaa !79
  %19 = load ptr, ptr %4, align 8, !tbaa !40
  %20 = getelementptr inbounds nuw %struct.redisContext, ptr %19, i32 0, i32 6
  %21 = load ptr, ptr %20, align 8, !tbaa !54
  %22 = getelementptr inbounds nuw %struct.redisReader, ptr %21, i32 0, i32 1
  %23 = getelementptr inbounds [128 x i8], ptr %22, i64 0, i64 0
  call void @__redisSetError(ptr noundef %13, i32 noundef %18, ptr noundef %23)
  store i32 -1, ptr %3, align 4
  br label %25

24:                                               ; preds = %2
  store i32 0, ptr %3, align 4
  br label %25

25:                                               ; preds = %24, %12
  %26 = load i32, ptr %3, align 4
  ret i32 %26
}