; Function Attrs: nounwind uwtable
define range(i32 -1, 1) i32 @redisGetReplyFromReader(ptr noundef captures(none) %0, ptr noundef %1) local_unnamed_addr #0 {
  %3 = getelementptr inbounds nuw i8, ptr %0, i64 160
  %4 = load ptr, ptr %3, align 8, !tbaa !44
  %5 = tail call i32 @redisReaderGetReply(ptr noundef %4, ptr noundef %1) #13
  %6 = icmp eq i32 %5, -1
  br i1 %6, label %7, label %16

7:                                                ; preds = %2
  %8 = load ptr, ptr %3, align 8, !tbaa !44
  %9 = load i32, ptr %8, align 8, !tbaa !70
  %10 = getelementptr inbounds nuw i8, ptr %8, i64 4
  %11 = getelementptr inbounds nuw i8, ptr %0, i64 8
  store i32 %9, ptr %11, align 8, !tbaa !32
  %12 = getelementptr inbounds nuw i8, ptr %0, i64 12
  %13 = tail call i64 @strlen(ptr noundef nonnull readonly dereferenceable(1) %10) #14
  %14 = tail call i64 @llvm.umin.i64(i64 %13, i64 127)
  tail call void @llvm.memcpy.p0.p0.i64(ptr nonnull align 4 %12, ptr nonnull readonly align 1 %10, i64 %14, i1 false)
  %15 = getelementptr inbounds nuw [128 x i8], ptr %12, i64 0, i64 %14
  store i8 0, ptr %15, align 1, !tbaa !22
  br label %16

16:                                               ; preds = %2, %7
  %.0 = phi i32 [ -1, %7 ], [ 0, %2 ]
  ret i32 %.0
}